target datalayout = "e-m:e-p270:32:32-p271:32:32-p272:64:64-i64:64-i128:128-f80:128-n8:16:32:64-S128"
target triple = "x86_64-pc-linux-gnu"

; Function Attrs: nounwind uwtable
define internal i32 @auxupvalue(ptr noundef %0, i32 noundef %1) #0 {
  %3 = alloca i32, align 4
  %4 = alloca ptr, align 8
  %5 = alloca i32, align 4
  %6 = alloca ptr, align 8
  %7 = alloca i32, align 4
  %8 = alloca i32, align 4
  store ptr %0, ptr %4, align 8, !tbaa !4
  store i32 %1, ptr %5, align 4, !tbaa !11
  call void @llvm.lifetime.start.p0(i64 8, ptr %6) #6
  call void @llvm.lifetime.start.p0(i64 4, ptr %7) #6
  %9 = load ptr, ptr %4, align 8, !tbaa !4
  %10 = call i64 @luaL_checkinteger(ptr noundef %9, i32 noundef 2)
  %11 = trunc i64 %10 to i32
  store i32 %11, ptr %7, align 4, !tbaa !11
  %12 = load ptr, ptr %4, align 8, !tbaa !4
  call void @luaL_checktype(ptr noundef %12, i32 noundef 1, i32 noundef 6)
  %13 = load i32, ptr %5, align 4, !tbaa !11
  %14 = icmp ne i32 %13, 0
  br i1 %14, label %15, label %19

15:                                               ; preds = %2
  %16 = load ptr, ptr %4, align 8, !tbaa !4
  %17 = load i32, ptr %7, align 4, !tbaa !11
  %18 = call ptr @lua_getupvalue(ptr noundef %16, i32 noundef 1, i32 noundef %17)
  br label %23

19:                                               ; preds = %2
  %20 = load ptr, ptr %4, align 8, !tbaa !4
  %21 = load i32, ptr %7, align 4, !tbaa !11
  %22 = call ptr @lua_setupvalue(ptr noundef %20, i32 noundef 1, i32 noundef %21)
  br label %23

23:                                               ; preds = %19, %15
  %24 = phi ptr [ %18, %15 ], [ %22, %19 ]
  store ptr %24, ptr %6, align 8, !tbaa !14
  %25 = load ptr, ptr %6, align 8, !tbaa !14
  %26 = icmp eq ptr %25, null
  br i1 %26, label %27, label %28

27:                                               ; preds = %23
  store i32 0, ptr %3, align 4
  store i32 1, ptr %8, align 4
  br label %38

28:                                               ; preds = %23
  %29 = load ptr, ptr %4, align 8, !tbaa !4
  %30 = load ptr, ptr %6, align 8, !tbaa !14
  %31 = call ptr @lua_pushstring(ptr noundef %29, ptr noundef %30)
  %32 = load ptr, ptr %4, align 8, !tbaa !4
  %33 = load i32, ptr %5, align 4, !tbaa !11
  %34 = add nsw i32 %33, 1
  %35 = sub nsw i32 0, %34
  call void @lua_rotate(ptr noundef %32, i32 noundef %35, i32 noundef 1)
  %36 = load i32, ptr %5, align 4, !tbaa !11
  %37 = add nsw i32 %36, 1
  store i32 %37, ptr %3, align 4
  store i32 1, ptr %8, align 4
  br label %38

38:                                               ; preds = %28, %27
  call void @llvm.lifetime.end.p0(i64 4, ptr %7) #6
  call void @llvm.lifetime.end.p0(i64 8, ptr %6) #6
  %39 = load i32, ptr %3, align 4
  ret i32 %39
}

; Function Attrs: nounwind uwtable
define internal i32 @db_setupvalue(ptr noundef %0) #0 {
  %2 = alloca ptr, align 8
  store ptr %0, ptr %2, align 8, !tbaa !4
  %3 = load ptr, ptr %2, align 8, !tbaa !4
  call void @luaL_checkany(ptr noundef %3, i32 noundef 3)
  %4 = load ptr, ptr %2, align 8, !tbaa !4
  %5 = call i32 @auxupvalue(ptr noundef %4, i32 noundef 0)
  ret i32 %5
}